; Function Attrs: mustprogress uwtable
define hidden noundef zeroext i1 @_ZN4cvc58internal6theory11quantifiers11TermDbSygus10hasFreeVarENS0_12NodeTemplateILb1EEE(ptr noundef nonnull align 8 dereferenceable(1040) %this, ptr nocapture noundef readonly %n) local_unnamed_addr #3 align 2 personality ptr @__gxx_personality_v0 {
entry:
  %visited = alloca %"class.std::map.23", align 8
  %agg.tmp = alloca %"class.cvc5::internal::NodeTemplate", align 8
  %0 = getelementptr inbounds i8, ptr %visited, i64 8
  store i32 0, ptr %0, align 8
  %_M_parent.i.i.i.i.i = getelementptr inbounds i8, ptr %visited, i64 16
  store ptr null, ptr %_M_parent.i.i.i.i.i, align 8
  %_M_left.i.i.i.i.i = getelementptr inbounds i8, ptr %visited, i64 24
  store ptr %0, ptr %_M_left.i.i.i.i.i, align 8
  %_M_right.i.i.i.i.i = getelementptr inbounds i8, ptr %visited, i64 32
  store ptr %0, ptr %_M_right.i.i.i.i.i, align 8
  %_M_node_count.i.i.i.i.i = getelementptr inbounds i8, ptr %visited, i64 40
  store i64 0, ptr %_M_node_count.i.i.i.i.i, align 8
  %1 = load ptr, ptr %n, align 8
  store ptr %1, ptr %agg.tmp, align 8
  %bf.load.i.i = load i64, ptr %1, align 8
  %bf.lshr.i.i = lshr i64 %bf.load.i.i, 40
  %2 = trunc i64 %bf.lshr.i.i to i32
  %bf.cast.i.i = and i32 %2, 1048575
  %cmp.i.i = icmp ult i32 %bf.cast.i.i, 1048574
  br i1 %cmp.i.i, label %if.then.i.i, label %if.else.i.i

if.then.i.i:                                      ; preds = %entry
  %bf.value.i.i = add i64 %bf.load.i.i, 1099511627776
  %bf.shl.i.i = and i64 %bf.value.i.i, 1152920405095219200
  %bf.clear7.i.i = and i64 %bf.load.i.i, -1152920405095219201
  %bf.set.i.i = or disjoint i64 %bf.shl.i.i, %bf.clear7.i.i
  store i64 %bf.set.i.i, ptr %1, align 8
  br label %invoke.cont

if.else.i.i:                                      ; preds = %entry
  %cmp12.i.i = icmp eq i32 %bf.cast.i.i, 1048574
  br i1 %cmp12.i.i, label %if.then13.i.i, label %invoke.cont

if.then13.i.i:                                    ; preds = %if.else.i.i
  %bf.set23.i.i = or i64 %bf.load.i.i, 1152920405095219200
  store i64 %bf.set23.i.i, ptr %1, align 8
  invoke void @_ZN4cvc58internal4expr9NodeValue20markRefCountMaxedOutEv(ptr noundef nonnull align 8 dereferenceable(16) %1)
          to label %invoke.cont unwind label %lpad

invoke.cont:                                      ; preds = %if.else.i.i, %if.then.i.i, %if.then13.i.i
  %call = invoke noundef zeroext i1 @_ZN4cvc58internal6theory11quantifiers11TermDbSygus10hasFreeVarENS0_12NodeTemplateILb1EEERSt3mapIS5_bSt4lessIS5_ESaISt4pairIKS5_bEEE(ptr noundef nonnull align 8 dereferenceable(1040) %this, ptr noundef nonnull %agg.tmp, ptr noundef nonnull align 8 dereferenceable(48) %visited)
          to label %invoke.cont3 unwind label %lpad2

invoke.cont3:                                     ; preds = %invoke.cont
  %3 = load ptr, ptr %agg.tmp, align 8
  %bf.load.i.i2 = load i64, ptr %3, align 8
  %4 = and i64 %bf.load.i.i2, 1152920405095219200
  %cmp.not.i.i = icmp eq i64 %4, 1152920405095219200
  br i1 %cmp.not.i.i, label %_ZN4cvc58internal12NodeTemplateILb1EED2Ev.exit, label %if.then.i.i3

if.then.i.i3:                                     ; preds = %invoke.cont3
  %bf.value.i.i4 = add i64 %bf.load.i.i2, 1152920405095219200
  %bf.shl.i.i5 = and i64 %bf.value.i.i4, 1152920405095219200
  %bf.clear7.i.i6 = and i64 %bf.load.i.i2, -1152920405095219201
  %bf.set.i.i7 = or disjoint i64 %bf.shl.i.i5, %bf.clear7.i.i6
  store i64 %bf.set.i.i7, ptr %3, align 8
  %cmp12.i.i8 = icmp eq i64 %bf.shl.i.i5, 0
  br i1 %cmp12.i.i8, label %if.then13.i.i9, label %_ZN4cvc58internal12NodeTemplateILb1EED2Ev.exit

if.then13.i.i9:                                   ; preds = %if.then.i.i3
  invoke void @_ZN4cvc58internal4expr9NodeValue15markForDeletionEv(ptr noundef nonnull align 8 dereferenceable(16) %3)
          to label %_ZN4cvc58internal12NodeTemplateILb1EED2Ev.exit unwind label %terminate.lpad.i

terminate.lpad.i:                                 ; preds = %if.then13.i.i9
  %5 = landingpad { ptr, i32 }
          catch ptr null
  %6 = extractvalue { ptr, i32 } %5, 0
  call void @__clang_call_terminate(ptr %6) #23
  unreachable

_ZN4cvc58internal12NodeTemplateILb1EED2Ev.exit:   ; preds = %invoke.cont3, %if.then.i.i3, %if.then13.i.i9
  %7 = load ptr, ptr %_M_parent.i.i.i.i.i, align 8
  invoke void @_ZNSt8_Rb_treeIN4cvc58internal12NodeTemplateILb1EEESt4pairIKS3_bESt10_Select1stIS6_ESt4lessIS3_ESaIS6_EE8_M_eraseEPSt13_Rb_tree_nodeIS6_E(ptr noundef nonnull align 8 dereferenceable(48) %visited, ptr noundef %7)
          to label %_ZNSt3mapIN4cvc58internal12NodeTemplateILb1EEEbSt4lessIS3_ESaISt4pairIKS3_bEEED2Ev.exit unwind label %terminate.lpad.i.i

terminate.lpad.i.i:                               ; preds = %_ZN4cvc58internal12NodeTemplateILb1EED2Ev.exit
  %8 = landingpad { ptr, i32 }
          catch ptr null
  %9 = extractvalue { ptr, i32 } %8, 0
  call void @__clang_call_terminate(ptr %9) #23
  unreachable

_ZNSt3mapIN4cvc58internal12NodeTemplateILb1EEEbSt4lessIS3_ESaISt4pairIKS3_bEEED2Ev.exit: ; preds = %_ZN4cvc58internal12NodeTemplateILb1EED2Ev.exit
  ret i1 %call

lpad:                                             ; preds = %if.then13.i.i
  %10 = landingpad { ptr, i32 }
          cleanup
  br label %ehcleanup

lpad2:                                            ; preds = %invoke.cont
  %11 = landingpad { ptr, i32 }
          cleanup
  call void @_ZN4cvc58internal12NodeTemplateILb1EED2Ev(ptr noundef nonnull align 8 dereferenceable(8) %agg.tmp) #22
  br label %ehcleanup

ehcleanup:                                        ; preds = %lpad2, %lpad
  %.pn = phi { ptr, i32 } [ %11, %lpad2 ], [ %10, %lpad ]
  call void @_ZNSt3mapIN4cvc58internal12NodeTemplateILb1EEEbSt4lessIS3_ESaISt4pairIKS3_bEEED2Ev(ptr noundef nonnull align 8 dereferenceable(48) %visited) #22
  resume { ptr, i32 } %.pn
}